target datalayout = "e-m:e-p270:32:32-p271:32:32-p272:64:64-i64:64-i128:128-f80:128-n8:16:32:64-S128"
target triple = "x86_64-pc-linux-gnu"

%struct._HF_OF_INTEREST_INFO = type { i32, ptr }
%struct._PKT_INFO = type { i32, %struct.nstime_t, i8, i8, i8, i8, i8, i32, i32, i16, i16, i16, i8, i8, i16, i16, i64, i64, i16, i8, i8, i32, i16, i16, i8, %struct._RRPD }
%struct.nstime_t = type { i64, i32 }
%struct._RRPD = type { i8, i8, i32, i64, i64, i8, i8, i32, %struct.nstime_t, i32, %struct.nstime_t, i32, %struct.nstime_t, i32, %struct.nstime_t, i32, i32, i32 }

@hf_of_interest = external global [29 x %struct._HF_OF_INTEREST_INFO], align 16

; Function Attrs: null_pointer_is_valid sspstrong uwtable
define hidden i32 @decode_smb(ptr noundef %0, ptr noundef %1, ptr noundef %2, ptr noundef %3) #0 {
  %5 = alloca i32, align 4
  %6 = alloca ptr, align 8
  %7 = alloca ptr, align 8
  %8 = alloca ptr, align 8
  %9 = alloca ptr, align 8
  %10 = alloca [16 x i32], align 16
  %11 = alloca i64, align 8
  %12 = alloca [16 x i64], align 16
  %13 = alloca i64, align 8
  %14 = alloca [16 x i64], align 16
  %15 = alloca i64, align 8
  %16 = alloca i32, align 4
  %17 = alloca i64, align 8
  store ptr %0, ptr %6, align 8
  store ptr %1, ptr %7, align 8
  store ptr %2, ptr %8, align 8
  store ptr %3, ptr %9, align 8
  call void @llvm.lifetime.start.p0(i64 64, ptr %10) #3
  call void @llvm.lifetime.start.p0(i64 8, ptr %11) #3
  call void @llvm.lifetime.start.p0(i64 128, ptr %12) #3
  call void @llvm.lifetime.start.p0(i64 8, ptr %13) #3
  call void @llvm.lifetime.start.p0(i64 128, ptr %14) #3
  call void @llvm.lifetime.start.p0(i64 8, ptr %15) #3
  %18 = load ptr, ptr %8, align 8
  %19 = getelementptr inbounds nuw %struct._PKT_INFO, ptr %18, i32 0, i32 10
  %20 = load i16, ptr %19, align 2
  %21 = zext i16 %20 to i32
  %22 = icmp eq i32 %21, 445
  br i1 %22, label %23, label %27

23:                                               ; preds = %4
  %24 = load ptr, ptr %8, align 8
  %25 = getelementptr inbounds nuw %struct._PKT_INFO, ptr %24, i32 0, i32 25
  %26 = getelementptr inbounds nuw %struct._RRPD, ptr %25, i32 0, i32 0
  store i8 1, ptr %26, align 8
  br label %31

27:                                               ; preds = %4
  %28 = load ptr, ptr %8, align 8
  %29 = getelementptr inbounds nuw %struct._PKT_INFO, ptr %28, i32 0, i32 25
  %30 = getelementptr inbounds nuw %struct._RRPD, ptr %29, i32 0, i32 0
  store i8 0, ptr %30, align 8
  br label %31

31:                                               ; preds = %27, %23
  %32 = load ptr, ptr %7, align 8
  %33 = load i32, ptr getelementptr ([29 x %struct._HF_OF_INTEREST_INFO], ptr @hf_of_interest, i64 0, i64 20), align 16
  %34 = getelementptr inbounds [16 x i32], ptr %10, i64 0, i64 0
  %35 = call i32 @extract_uint(ptr noundef %32, i32 noundef %33, ptr noundef %34, ptr noundef %11)
  %36 = icmp ne i32 %35, 0
  br i1 %36, label %47, label %37

37:                                               ; preds = %31
  %38 = load i64, ptr %11, align 8
  %39 = icmp ne i64 %38, 0
  br i1 %39, label %40, label %46

40:                                               ; preds = %37
  %41 = load ptr, ptr %8, align 8
  %42 = getelementptr inbounds nuw %struct._PKT_INFO, ptr %41, i32 0, i32 25
  %43 = getelementptr inbounds nuw %struct._RRPD, ptr %42, i32 0, i32 15
  store i32 4, ptr %43, align 8
  %44 = load ptr, ptr %8, align 8
  %45 = getelementptr inbounds nuw %struct._PKT_INFO, ptr %44, i32 0, i32 24
  store i8 0, ptr %45, align 4
  store i32 0, ptr %5, align 4
  store i32 1, ptr %16, align 4
  br label %150

46:                                               ; preds = %37
  br label %47

47:                                               ; preds = %46, %31
  %48 = load ptr, ptr %8, align 8
  %49 = getelementptr inbounds nuw %struct._PKT_INFO, ptr %48, i32 0, i32 25
  %50 = getelementptr inbounds nuw %struct._RRPD, ptr %49, i32 0, i32 3
  store i64 0, ptr %50, align 8
  %51 = load ptr, ptr %8, align 8
  %52 = getelementptr inbounds nuw %struct._PKT_INFO, ptr %51, i32 0, i32 25
  %53 = getelementptr inbounds nuw %struct._RRPD, ptr %52, i32 0, i32 4
  store i64 0, ptr %53, align 8
  %54 = load ptr, ptr %8, align 8
  %55 = getelementptr inbounds nuw %struct._PKT_INFO, ptr %54, i32 0, i32 25
  %56 = getelementptr inbounds nuw %struct._RRPD, ptr %55, i32 0, i32 5
  store i8 1, ptr %56, align 8
  %57 = load ptr, ptr %8, align 8
  %58 = getelementptr inbounds nuw %struct._PKT_INFO, ptr %57, i32 0, i32 25
  %59 = getelementptr inbounds nuw %struct._RRPD, ptr %58, i32 0, i32 15
  store i32 5, ptr %59, align 8
  %60 = load ptr, ptr %8, align 8
  %61 = getelementptr inbounds nuw %struct._PKT_INFO, ptr %60, i32 0, i32 24
  store i8 1, ptr %61, align 4
  %62 = load ptr, ptr %7, align 8
  %63 = load i32, ptr getelementptr ([29 x %struct._HF_OF_INTEREST_INFO], ptr @hf_of_interest, i64 0, i64 22), align 16
  %64 = getelementptr inbounds [16 x i64], ptr %14, i64 0, i64 0
  %65 = call i32 @extract_ui64(ptr noundef %62, i32 noundef %63, ptr noundef %64, ptr noundef %15)
  %66 = load i64, ptr %15, align 8
  %67 = icmp ne i64 %66, 0
  br i1 %67, label %68, label %149

68:                                               ; preds = %47
  %69 = load ptr, ptr %7, align 8
  %70 = load i32, ptr getelementptr ([29 x %struct._HF_OF_INTEREST_INFO], ptr @hf_of_interest, i64 0, i64 21), align 16
  %71 = getelementptr inbounds [16 x i64], ptr %12, i64 0, i64 0
  %72 = call i32 @extract_ui64(ptr noundef %69, i32 noundef %70, ptr noundef %71, ptr noundef %13)
  call void @llvm.lifetime.start.p0(i64 8, ptr %17) #3
  store i64 0, ptr %17, align 8
  br label %73

73:                                               ; preds = %143, %68
  %74 = load i64, ptr %17, align 8
  %75 = load i64, ptr %15, align 8
  %76 = icmp ult i64 %74, %75
  br i1 %76, label %77, label %80

77:                                               ; preds = %73
  %78 = load i64, ptr %17, align 8
  %79 = icmp ult i64 %78, 16
  br label %80

80:                                               ; preds = %77, %73
  %81 = phi i1 [ false, %73 ], [ %79, %77 ]
  br i1 %81, label %83, label %82

82:                                               ; preds = %80
  store i32 2, ptr %16, align 4
  call void @llvm.lifetime.end.p0(i64 8, ptr %17) #3
  br label %146

83:                                               ; preds = %80
  %84 = load ptr, ptr %8, align 8
  %85 = getelementptr inbounds nuw %struct._PKT_INFO, ptr %84, i32 0, i32 25
  %86 = getelementptr inbounds nuw %struct._RRPD, ptr %85, i32 0, i32 0
  %87 = load i8, ptr %86, align 8, !range !6, !noundef !7
  %88 = trunc i8 %87 to i1
  %89 = load ptr, ptr %9, align 8
  %90 = load i64, ptr %17, align 8
  %91 = getelementptr %struct._PKT_INFO, ptr %89, i64 %90
  %92 = getelementptr inbounds nuw %struct._PKT_INFO, ptr %91, i32 0, i32 25
  %93 = getelementptr inbounds nuw %struct._RRPD, ptr %92, i32 0, i32 0
  %94 = zext i1 %88 to i8
  store i8 %94, ptr %93, align 8
  %95 = load ptr, ptr %8, align 8
  %96 = getelementptr inbounds nuw %struct._PKT_INFO, ptr %95, i32 0, i32 25
  %97 = getelementptr inbounds nuw %struct._RRPD, ptr %96, i32 0, i32 1
  %98 = load i8, ptr %97, align 1
  %99 = load ptr, ptr %9, align 8
  %100 = load i64, ptr %17, align 8
  %101 = getelementptr %struct._PKT_INFO, ptr %99, i64 %100
  %102 = getelementptr inbounds nuw %struct._PKT_INFO, ptr %101, i32 0, i32 25
  %103 = getelementptr inbounds nuw %struct._RRPD, ptr %102, i32 0, i32 1
  store i8 %98, ptr %103, align 1
  %104 = load ptr, ptr %8, align 8
  %105 = getelementptr inbounds nuw %struct._PKT_INFO, ptr %104, i32 0, i32 25
  %106 = getelementptr inbounds nuw %struct._RRPD, ptr %105, i32 0, i32 2
  %107 = load i32, ptr %106, align 4
  %108 = load ptr, ptr %9, align 8
  %109 = load i64, ptr %17, align 8
  %110 = getelementptr %struct._PKT_INFO, ptr %108, i64 %109
  %111 = getelementptr inbounds nuw %struct._PKT_INFO, ptr %110, i32 0, i32 25
  %112 = getelementptr inbounds nuw %struct._RRPD, ptr %111, i32 0, i32 2
  store i32 %107, ptr %112, align 4
  %113 = load i64, ptr %17, align 8
  %114 = getelementptr [16 x i64], ptr %12, i64 0, i64 %113
  %115 = load i64, ptr %114, align 8
  %116 = load ptr, ptr %9, align 8
  %117 = load i64, ptr %17, align 8
  %118 = getelementptr %struct._PKT_INFO, ptr %116, i64 %117
  %119 = getelementptr inbounds nuw %struct._PKT_INFO, ptr %118, i32 0, i32 25
  %120 = getelementptr inbounds nuw %struct._RRPD, ptr %119, i32 0, i32 3
  store i64 %115, ptr %120, align 8
  %121 = load i64, ptr %17, align 8
  %122 = getelementptr [16 x i64], ptr %14, i64 0, i64 %121
  %123 = load i64, ptr %122, align 8
  %124 = load ptr, ptr %9, align 8
  %125 = load i64, ptr %17, align 8
  %126 = getelementptr %struct._PKT_INFO, ptr %124, i64 %125
  %127 = getelementptr inbounds nuw %struct._PKT_INFO, ptr %126, i32 0, i32 25
  %128 = getelementptr inbounds nuw %struct._RRPD, ptr %127, i32 0, i32 4
  store i64 %123, ptr %128, align 8
  %129 = load ptr, ptr %9, align 8
  %130 = load i64, ptr %17, align 8
  %131 = getelementptr %struct._PKT_INFO, ptr %129, i64 %130
  %132 = getelementptr inbounds nuw %struct._PKT_INFO, ptr %131, i32 0, i32 25
  %133 = getelementptr inbounds nuw %struct._RRPD, ptr %132, i32 0, i32 5
  store i8 1, ptr %133, align 8
  %134 = load ptr, ptr %9, align 8
  %135 = load i64, ptr %17, align 8
  %136 = getelementptr %struct._PKT_INFO, ptr %134, i64 %135
  %137 = getelementptr inbounds nuw %struct._PKT_INFO, ptr %136, i32 0, i32 25
  %138 = getelementptr inbounds nuw %struct._RRPD, ptr %137, i32 0, i32 15
  store i32 5, ptr %138, align 8
  %139 = load ptr, ptr %9, align 8
  %140 = load i64, ptr %17, align 8
  %141 = getelementptr %struct._PKT_INFO, ptr %139, i64 %140
  %142 = getelementptr inbounds nuw %struct._PKT_INFO, ptr %141, i32 0, i32 24
  store i8 1, ptr %142, align 4
  br label %143

143:                                              ; preds = %83
  %144 = load i64, ptr %17, align 8
  %145 = add i64 %144, 1
  store i64 %145, ptr %17, align 8
  br label %73, !llvm.loop !8

146:                                              ; preds = %82
  %147 = load i64, ptr %15, align 8
  %148 = trunc i64 %147 to i32
  store i32 %148, ptr %5, align 4
  store i32 1, ptr %16, align 4
  br label %150

149:                                              ; preds = %47
  store i32 1, ptr %5, align 4
  store i32 1, ptr %16, align 4
  br label %150

150:                                              ; preds = %149, %146, %40
  call void @llvm.lifetime.end.p0(i64 8, ptr %15) #3
  call void @llvm.lifetime.end.p0(i64 128, ptr %14) #3
  call void @llvm.lifetime.end.p0(i64 8, ptr %13) #3
  call void @llvm.lifetime.end.p0(i64 128, ptr %12) #3
  call void @llvm.lifetime.end.p0(i64 8, ptr %11) #3
  call void @llvm.lifetime.end.p0(i64 64, ptr %10) #3
  %151 = load i32, ptr %5, align 4
  ret i32 %151
}