; Function Attrs: null_pointer_is_valid sspstrong uwtable
define hidden i32 @decode_smb(ptr noundef readnone captures(none) %0, ptr noundef %1, ptr noundef captures(none) initializes((84, 85), (88, 89), (208, 212)) %2, ptr noundef writeonly captures(none) %3) local_unnamed_addr #0 {
  %5 = alloca [16 x i32], align 16
  %6 = alloca i64, align 8
  %7 = alloca [16 x i64], align 16
  %8 = alloca i64, align 8
  %9 = alloca [16 x i64], align 16
  %10 = alloca i64, align 8
  call void @llvm.lifetime.start.p0(i64 64, ptr nonnull %5) #5
  call void @llvm.lifetime.start.p0(i64 8, ptr nonnull %6) #5
  call void @llvm.lifetime.start.p0(i64 128, ptr nonnull %7) #5
  call void @llvm.lifetime.start.p0(i64 8, ptr nonnull %8) #5
  call void @llvm.lifetime.start.p0(i64 128, ptr nonnull %9) #5
  call void @llvm.lifetime.start.p0(i64 8, ptr nonnull %10) #5
  %11 = getelementptr inbounds nuw i8, ptr %2, i64 42
  %12 = load i16, ptr %11, align 2
  %13 = icmp eq i16 %12, 445
  %spec.select = zext i1 %13 to i8
  %14 = getelementptr inbounds nuw i8, ptr %2, i64 88
  store i8 %spec.select, ptr %14, align 8
  %15 = load i32, ptr getelementptr inbounds nuw (i8, ptr @hf_of_interest, i64 320), align 16
  %16 = call i32 @extract_uint(ptr noundef %1, i32 noundef %15, ptr noundef nonnull %5, ptr noundef nonnull %6)
  %17 = icmp eq i32 %16, 0
  %18 = load i64, ptr %6, align 8
  %19 = icmp ne i64 %18, 0
  %or.cond = select i1 %17, i1 %19, i1 false
  br i1 %or.cond, label %20, label %23

20:                                               ; preds = %4
  %21 = getelementptr inbounds nuw i8, ptr %2, i64 208
  store i32 4, ptr %21, align 8
  %22 = getelementptr inbounds nuw i8, ptr %2, i64 84
  store i8 0, ptr %22, align 4
  br label %56

23:                                               ; preds = %4
  %24 = getelementptr inbounds nuw i8, ptr %2, i64 96
  %25 = getelementptr inbounds nuw i8, ptr %2, i64 112
  call void @llvm.memset.p0.i64(ptr noundef nonnull align 8 dereferenceable(16) %24, i8 0, i64 16, i1 false)
  store i8 1, ptr %25, align 8
  %26 = getelementptr inbounds nuw i8, ptr %2, i64 208
  store i32 5, ptr %26, align 8
  %27 = getelementptr inbounds nuw i8, ptr %2, i64 84
  store i8 1, ptr %27, align 4
  %28 = load i32, ptr getelementptr inbounds nuw (i8, ptr @hf_of_interest, i64 352), align 16
  %29 = call i32 @extract_ui64(ptr noundef %1, i32 noundef %28, ptr noundef nonnull %9, ptr noundef nonnull %10)
  %30 = load i64, ptr %10, align 8
  %.not = icmp eq i64 %30, 0
  br i1 %.not, label %56, label %31

31:                                               ; preds = %23
  %32 = load i32, ptr getelementptr inbounds nuw (i8, ptr @hf_of_interest, i64 336), align 16
  %33 = call i32 @extract_ui64(ptr noundef %1, i32 noundef %32, ptr noundef nonnull %7, ptr noundef nonnull %8)
  %34 = load i64, ptr %10, align 8
  %invariant.umin = call i64 @llvm.umin.i64(i64 %34, i64 16)
  %.not40 = icmp eq i64 %34, 0
  br i1 %.not40, label %._crit_edge, label %.lr.ph

.lr.ph:                                           ; preds = %31
  %35 = getelementptr inbounds nuw i8, ptr %2, i64 89
  %36 = getelementptr inbounds nuw i8, ptr %2, i64 92
  br label %38

._crit_edge:                                      ; preds = %38, %31
  %37 = trunc i64 %34 to i32
  br label %56

38:                                               ; preds = %.lr.ph, %38
  %.039 = phi i64 [ 0, %.lr.ph ], [ %55, %38 ]
  %39 = load i8, ptr %14, align 8, !range !6, !noundef !7
  %40 = getelementptr %struct._PKT_INFO, ptr %3, i64 %.039
  %41 = getelementptr inbounds nuw i8, ptr %40, i64 88
  store i8 %39, ptr %41, align 8
  %42 = load i8, ptr %35, align 1
  %43 = getelementptr inbounds nuw i8, ptr %40, i64 89
  store i8 %42, ptr %43, align 1
  %44 = load i32, ptr %36, align 4
  %45 = getelementptr inbounds nuw i8, ptr %40, i64 92
  store i32 %44, ptr %45, align 4
  %46 = getelementptr [16 x i64], ptr %7, i64 0, i64 %.039
  %47 = load i64, ptr %46, align 8
  %48 = getelementptr inbounds nuw i8, ptr %40, i64 96
  store i64 %47, ptr %48, align 8
  %49 = getelementptr [16 x i64], ptr %9, i64 0, i64 %.039
  %50 = load i64, ptr %49, align 8
  %51 = getelementptr inbounds nuw i8, ptr %40, i64 104
  store i64 %50, ptr %51, align 8
  %52 = getelementptr inbounds nuw i8, ptr %40, i64 112
  store i8 1, ptr %52, align 8
  %53 = getelementptr inbounds nuw i8, ptr %40, i64 208
  store i32 5, ptr %53, align 8
  %54 = getelementptr inbounds nuw i8, ptr %40, i64 84
  store i8 1, ptr %54, align 4
  %55 = add nuw nsw i64 %.039, 1
  %exitcond.not = icmp eq i64 %55, %invariant.umin
  br i1 %exitcond.not, label %._crit_edge, label %38, !llvm.loop !8

56:                                               ; preds = %23, %._crit_edge, %20
  %.038 = phi i32 [ 0, %20 ], [ %37, %._crit_edge ], [ 1, %23 ]
  call void @llvm.lifetime.end.p0(i64 8, ptr nonnull %10) #5
  call void @llvm.lifetime.end.p0(i64 128, ptr nonnull %9) #5
  call void @llvm.lifetime.end.p0(i64 8, ptr nonnull %8) #5
  call void @llvm.lifetime.end.p0(i64 128, ptr nonnull %7) #5
  call void @llvm.lifetime.end.p0(i64 8, ptr nonnull %6) #5
  call void @llvm.lifetime.end.p0(i64 64, ptr nonnull %5) #5
  ret i32 %.038
}